target datalayout = "e-m:e-p270:32:32-p271:32:32-p272:64:64-i64:64-i128:128-f80:128-n8:16:32:64-S128"
target triple = "x86_64-pc-linux-gnu"

; Function Attrs: alwaysinline nounwind
define internal ptr @memcpy.inline(ptr noalias %0, ptr noalias %1, i64 %2) #4 {
  %4 = alloca ptr, align 8
  %5 = alloca ptr, align 8
  %6 = alloca i64, align 8
  store ptr %0, ptr %4, align 8
  store ptr %1, ptr %5, align 8
  store i64 %2, ptr %6, align 8
  %7 = load ptr, ptr %4, align 8
  %8 = load ptr, ptr %5, align 8
  %9 = load i64, ptr %6, align 8
  %10 = load ptr, ptr %4, align 8
  %11 = call i64 @llvm.objectsize.i64.p0(ptr %10, i1 false, i1 true, i1 true)
  %12 = call ptr @__memcpy_chk(ptr noundef %7, ptr noundef %8, i64 noundef %9, i64 noundef %11) #13
  ret ptr %12
}

; Function Attrs: null_pointer_is_valid sspstrong uwtable
define hidden ptr @blf_get_xml_channel_name(ptr noundef %0, ptr noundef %1) #2 {
  %3 = alloca ptr, align 8
  %4 = alloca ptr, align 8
  %5 = alloca ptr, align 8
  %6 = alloca ptr, align 8
  %7 = alloca i64, align 8
  %8 = alloca i32, align 4
  store ptr %0, ptr %4, align 8
  store ptr %1, ptr %5, align 8
  call void @llvm.lifetime.start.p0(i64 8, ptr %6) #13
  call void @llvm.lifetime.start.p0(i64 8, ptr %7) #13
  %9 = load ptr, ptr %4, align 8
  %10 = icmp eq ptr %9, null
  br i1 %10, label %18, label %11

11:                                               ; preds = %2
  %12 = load ptr, ptr %5, align 8
  %13 = icmp eq ptr %12, null
  br i1 %13, label %18, label %14

14:                                               ; preds = %11
  %15 = load ptr, ptr %5, align 8
  %16 = load ptr, ptr %4, align 8
  %17 = icmp ule ptr %15, %16
  br i1 %17, label %18, label %19

18:                                               ; preds = %14, %11, %2
  store ptr null, ptr %3, align 8
  store i32 1, ptr %8, align 4
  br label %43

19:                                               ; preds = %14
  %20 = load ptr, ptr %5, align 8
  %21 = load ptr, ptr %4, align 8
  %22 = ptrtoint ptr %20 to i64
  %23 = ptrtoint ptr %21 to i64
  %24 = sub i64 %22, %23
  store i64 %24, ptr %7, align 8
  %25 = load i64, ptr %7, align 8
  %26 = add i64 %25, 1
  %27 = call noalias ptr @g_try_malloc(i64 noundef %26) #14
  store ptr %27, ptr %6, align 8
  %28 = load ptr, ptr %6, align 8
  %29 = icmp eq ptr %28, null
  br i1 %29, label %30, label %34

30:                                               ; preds = %19
  br label %31

31:                                               ; preds = %30
  br label %32

32:                                               ; preds = %31
  br label %33

33:                                               ; preds = %32
  store ptr null, ptr %3, align 8
  store i32 1, ptr %8, align 4
  br label %43

34:                                               ; preds = %19
  %35 = load ptr, ptr %6, align 8
  %36 = load ptr, ptr %4, align 8
  %37 = load i64, ptr %7, align 8
  %38 = call ptr @memcpy.inline(ptr noundef %35, ptr noundef %36, i64 noundef %37) #13
  %39 = load ptr, ptr %6, align 8
  %40 = load i64, ptr %7, align 8
  %41 = getelementptr i8, ptr %39, i64 %40
  store i8 0, ptr %41, align 1
  %42 = load ptr, ptr %6, align 8
  store ptr %42, ptr %3, align 8
  store i32 1, ptr %8, align 4
  br label %43

43:                                               ; preds = %34, %33, %18
  call void @llvm.lifetime.end.p0(i64 8, ptr %7) #13
  call void @llvm.lifetime.end.p0(i64 8, ptr %6) #13
  %44 = load ptr, ptr %3, align 8
  ret ptr %44
}