; Function Attrs: null_pointer_is_valid sspstrong uwtable
define hidden ptr @blf_get_xml_channel_name(ptr noundef %0, ptr noundef %1) local_unnamed_addr #2 {
  %3 = icmp ne ptr %0, null
  %.not = icmp ugt ptr %1, %0
  %or.cond18 = and i1 %3, %.not
  br i1 %or.cond18, label %4, label %15

4:                                                ; preds = %2
  %5 = ptrtoint ptr %1 to i64
  %6 = ptrtoint ptr %0 to i64
  %7 = sub i64 %5, %6
  %8 = add i64 %7, 1
  %9 = tail call noalias ptr @g_try_malloc(i64 noundef %8) #15
  %10 = icmp eq ptr %9, null
  br i1 %10, label %15, label %11

11:                                               ; preds = %4
  %12 = icmp ne i64 %8, -1
  tail call void @llvm.assume(i1 %12)
  %13 = tail call ptr @__memcpy_chk(ptr noundef nonnull %9, ptr noundef nonnull %0, i64 noundef %7, i64 noundef %8) #14, !alias.scope !10
  %14 = getelementptr i8, ptr %9, i64 %7
  store i8 0, ptr %14, align 1
  br label %15

15:                                               ; preds = %4, %2, %11
  %.0 = phi ptr [ %9, %11 ], [ null, %2 ], [ null, %4 ]
  ret ptr %.0
}